; Function Attrs: mustprogress uwtable
define noundef zeroext i1 @_ZNK6icu_7518AnnualTimeZoneRuleneERKNS_12TimeZoneRuleE(ptr noundef nonnull align 8 dereferenceable(96) %this, ptr noundef nonnull align 8 dereferenceable(80) %that) unnamed_addr #0 align 2 {
entry:
  %vtable = load ptr, ptr %this, align 8
  %vfn = getelementptr inbounds i8, ptr %vtable, i64 32
  %0 = load ptr, ptr %vfn, align 8
  %call = tail call noundef zeroext i1 %0(ptr noundef nonnull align 8 dereferenceable(96) %this, ptr noundef nonnull align 8 dereferenceable(80) %that)
  %lnot = xor i1 %call, true
  ret i1 %lnot
}